target datalayout = "e-m:e-p270:32:32-p271:32:32-p272:64:64-i64:64-i128:128-f80:128-n8:16:32:64-S128"
target triple = "x86_64-pc-linux-gnu"

%struct._lv_svg_render_hal = type { ptr, ptr }

@hal_funcs = internal global %struct._lv_svg_render_hal zeroinitializer, align 8

; Function Attrs: nounwind uwtable
define void @lv_svg_render_init(ptr noundef %0) #0 {
  %2 = alloca ptr, align 8
  store ptr %0, ptr %2, align 8, !tbaa !3
  %3 = load ptr, ptr %2, align 8, !tbaa !3
  %4 = icmp ne ptr %3, null
  br i1 %4, label %5, label %7

5:                                                ; preds = %1
  %6 = load ptr, ptr %2, align 8, !tbaa !3
  call void @llvm.memcpy.p0.p0.i64(ptr align 8 @hal_funcs, ptr align 8 %6, i64 16, i1 false), !tbaa.struct !7
  call void @lv_freetype_outline_add_event(ptr noundef @_freetype_outline_cb, i32 noundef 0, ptr noundef null)
  br label %7

7:                                                ; preds = %5, %1
  ret void
}