; Function Attrs: nounwind uwtable
define void @lv_svg_render_init(ptr noundef readonly %0) local_unnamed_addr #0 {
  %.not = icmp eq ptr %0, null
  br i1 %.not, label %3, label %2

2:                                                ; preds = %1
  tail call void @llvm.memcpy.p0.p0.i64(ptr noundef nonnull align 8 dereferenceable(16) @hal_funcs, ptr noundef nonnull align 8 dereferenceable(16) %0, i64 16, i1 false), !tbaa.struct !3
  tail call void @lv_freetype_outline_add_event(ptr noundef nonnull @_freetype_outline_cb, i32 noundef 0, ptr noundef null) #9
  br label %3

3:                                                ; preds = %2, %1
  ret void
}